; Function Attrs: nounwind uwtable
define internal range(i32 0, 2) i32 @sm2_init(ptr noundef %0, ptr noundef %1, ptr noundef %2) #0 {
  %4 = icmp eq ptr %0, null
  %5 = icmp eq ptr %1, null
  %or.cond = or i1 %4, %5
  br i1 %or.cond, label %sm2_set_ctx_params.exit, label %6

6:                                                ; preds = %3
  %7 = tail call i32 @EC_KEY_up_ref(ptr noundef nonnull %1) #5
  %.not = icmp eq i32 %7, 0
  br i1 %.not, label %sm2_set_ctx_params.exit, label %8

8:                                                ; preds = %6
  %9 = getelementptr inbounds nuw i8, ptr %0, i64 8
  %10 = load ptr, ptr %9, align 8, !tbaa !13
  tail call void @EC_KEY_free(ptr noundef %10) #5
  store ptr %1, ptr %9, align 8, !tbaa !13
  %11 = icmp eq ptr %2, null
  br i1 %11, label %sm2_set_ctx_params.exit, label %ossl_param_is_empty.exit.i

ossl_param_is_empty.exit.i:                       ; preds = %8
  %12 = load ptr, ptr %2, align 8, !tbaa !14
  %.not.i = icmp eq ptr %12, null
  br i1 %.not.i, label %sm2_set_ctx_params.exit, label %13

13:                                               ; preds = %ossl_param_is_empty.exit.i
  %14 = getelementptr inbounds nuw i8, ptr %0, i64 16
  %15 = load ptr, ptr %0, align 8, !tbaa !3
  %16 = tail call i32 @ossl_prov_digest_load_from_params(ptr noundef nonnull %14, ptr noundef nonnull %2, ptr noundef %15) #5
  %.not7.i = icmp ne i32 %16, 0
  %..i = zext i1 %.not7.i to i32
  br label %sm2_set_ctx_params.exit

sm2_set_ctx_params.exit:                          ; preds = %13, %ossl_param_is_empty.exit.i, %8, %3, %6
  %.0 = phi i32 [ 0, %6 ], [ 0, %3 ], [ 1, %ossl_param_is_empty.exit.i ], [ %..i, %13 ], [ 1, %8 ]
  ret i32 %.0
}